target datalayout = "e-m:e-p270:32:32-p271:32:32-p272:64:64-i64:64-i128:128-f80:128-n8:16:32:64-S128"
target triple = "x86_64-pc-linux-gnu"

%struct._zend_executor_globals = type { %struct._zval_struct, %struct._zval_struct, [32 x ptr], ptr, ptr, %struct._zend_array, %struct._zend_array, ptr, i32, i32, ptr, ptr, ptr, ptr, ptr, ptr, i64, ptr, ptr, i32, i32, i64, i32, i32, i32, i8, i8, %struct.zend_atomic_bool_s, %struct.zend_atomic_bool_s, ptr, i64, ptr, ptr, %struct._zend_array, %struct._zend_array, i32, i8, %struct._zval_struct, %struct._zval_struct, %struct._zend_stack, %struct._zend_stack, %struct._zend_stack, ptr, i32, i32, i64, ptr, ptr, ptr, %struct._zend_objects_store, ptr, ptr, ptr, [3 x %struct._zend_op], ptr, i8, i8, i64, i32, i32, ptr, [16 x %struct._HashTableIterator], ptr, %union._zend_function, %struct._zend_op, %struct._zend_array, i64, %struct.zend_get_gc_buffer, ptr, ptr, ptr, i64, i8, i32, ptr, ptr, i64, %struct._zend_call_stack, i64, i64, [6 x ptr] }
%struct.zend_atomic_bool_s = type { i8 }
%struct._zval_struct = type { %union._zend_value, %union.anon, %union.anon.2 }
%union._zend_value = type { i64 }
%union.anon = type { i32 }
%union.anon.2 = type { i32 }
%struct._zend_stack = type { i32, i32, i32, ptr }
%struct._zend_objects_store = type { ptr, i32, i32, i32 }
%struct._HashTableIterator = type { ptr, i32, i32 }
%union._zend_function = type { %struct._zend_op_array }
%struct._zend_op_array = type { i8, [3 x i8], i32, ptr, ptr, ptr, i32, i32, ptr, ptr, ptr, ptr, i32, i32, i32, i32, ptr, ptr, ptr, ptr, ptr, i32, i32, ptr, ptr, ptr, i32, i32, i32, i32, ptr, ptr, [6 x ptr] }
%struct._zend_op = type { ptr, %union._znode_op, %union._znode_op, %union._znode_op, i32, i32, i8, i8, i8, i8 }
%union._znode_op = type { i32 }
%struct._zend_array = type { %struct._zend_refcounted_h, %union.anon.4, i32, %union.anon.6, i32, i32, i32, i32, i64, ptr }
%struct._zend_refcounted_h = type { i32, %union.anon.3 }
%union.anon.3 = type { i32 }
%union.anon.4 = type { i32 }
%union.anon.6 = type { ptr }
%struct.zend_get_gc_buffer = type { ptr, ptr, ptr }
%struct._zend_call_stack = type { ptr, i64 }
%struct._zend_execute_data = type { ptr, ptr, ptr, ptr, %struct._zval_struct, ptr, ptr, ptr, ptr }

@.str = private unnamed_addr constant [4 x i8] c"s|s\00", align 1
@executor_globals = external global %struct._zend_executor_globals, align 8

; Function Attrs: nounwind uwtable
define internal ptr @php_dom_obj_from_obj(ptr noundef %0) #0 {
  %2 = alloca ptr, align 8
  store ptr %0, ptr %2, align 8
  %3 = load ptr, ptr %2, align 8
  %4 = getelementptr inbounds i8, ptr %3, i64 -24
  ret ptr %4
}

; Function Attrs: nounwind uwtable
define hidden void @zim_DOMProcessingInstruction___construct(ptr noundef %0, ptr noundef %1) #0 {
  %3 = alloca ptr, align 8
  %4 = alloca ptr, align 8
  %5 = alloca ptr, align 8
  %6 = alloca ptr, align 8
  %7 = alloca ptr, align 8
  %8 = alloca ptr, align 8
  %9 = alloca ptr, align 8
  %10 = alloca i64, align 8
  %11 = alloca i64, align 8
  %12 = alloca i32, align 4
  store ptr %0, ptr %3, align 8
  store ptr %1, ptr %4, align 8
  store ptr null, ptr %5, align 8
  store ptr null, ptr %6, align 8
  store ptr null, ptr %9, align 8
  %13 = load ptr, ptr %3, align 8
  %14 = getelementptr inbounds %struct._zend_execute_data, ptr %13, i32 0, i32 4
  %15 = getelementptr inbounds %struct._zval_struct, ptr %14, i32 0, i32 2
  %16 = load i32, ptr %15, align 4
  %17 = call i32 (i32, ptr, ...) @zend_parse_parameters(i32 noundef %16, ptr noundef @.str, ptr noundef %8, ptr noundef %10, ptr noundef %9, ptr noundef %11)
  %18 = icmp eq i32 %17, -1
  br i1 %18, label %19, label %24

19:                                               ; preds = %2
  br label %20

20:                                               ; preds = %19
  %21 = load ptr, ptr getelementptr inbounds (%struct._zend_executor_globals, ptr @executor_globals, i32 0, i32 50), align 8
  %22 = icmp ne ptr %21, null
  call void @llvm.assume(i1 %22)
  br label %62

23:                                               ; No predecessors!
  br label %24

24:                                               ; preds = %23, %2
  %25 = load ptr, ptr %8, align 8
  %26 = call i32 @xmlValidateName(ptr noundef %25, i32 noundef 0)
  store i32 %26, ptr %12, align 4
  %27 = load i32, ptr %12, align 4
  %28 = icmp ne i32 %27, 0
  br i1 %28, label %29, label %34

29:                                               ; preds = %24
  call void @php_dom_throw_error(i32 noundef 5, i32 noundef 1)
  br label %30

30:                                               ; preds = %29
  %31 = load ptr, ptr getelementptr inbounds (%struct._zend_executor_globals, ptr @executor_globals, i32 0, i32 50), align 8
  %32 = icmp ne ptr %31, null
  call void @llvm.assume(i1 %32)
  br label %62

33:                                               ; No predecessors!
  br label %34

34:                                               ; preds = %33, %24
  %35 = load ptr, ptr %8, align 8
  %36 = load ptr, ptr %9, align 8
  %37 = call ptr @xmlNewPI(ptr noundef %35, ptr noundef %36)
  store ptr %37, ptr %5, align 8
  %38 = load ptr, ptr %5, align 8
  %39 = icmp ne ptr %38, null
  br i1 %39, label %45, label %40

40:                                               ; preds = %34
  call void @php_dom_throw_error(i32 noundef 11, i32 noundef 1)
  br label %41

41:                                               ; preds = %40
  %42 = load ptr, ptr getelementptr inbounds (%struct._zend_executor_globals, ptr @executor_globals, i32 0, i32 50), align 8
  %43 = icmp ne ptr %42, null
  call void @llvm.assume(i1 %43)
  br label %62

44:                                               ; No predecessors!
  br label %45

45:                                               ; preds = %44, %34
  %46 = load ptr, ptr %3, align 8
  %47 = getelementptr inbounds %struct._zend_execute_data, ptr %46, i32 0, i32 4
  %48 = getelementptr inbounds %struct._zval_struct, ptr %47, i32 0, i32 0
  %49 = load ptr, ptr %48, align 8
  %50 = call ptr @php_dom_obj_from_obj(ptr noundef %49)
  store ptr %50, ptr %7, align 8
  %51 = load ptr, ptr %7, align 8
  %52 = call ptr @dom_object_get_node(ptr noundef %51)
  store ptr %52, ptr %6, align 8
  %53 = load ptr, ptr %6, align 8
  %54 = icmp ne ptr %53, null
  br i1 %54, label %55, label %57

55:                                               ; preds = %45
  %56 = load ptr, ptr %7, align 8
  call void @php_libxml_node_decrement_resource(ptr noundef %56)
  br label %57

57:                                               ; preds = %55, %45
  %58 = load ptr, ptr %7, align 8
  %59 = load ptr, ptr %5, align 8
  %60 = load ptr, ptr %7, align 8
  %61 = call i32 @php_libxml_increment_node_ptr(ptr noundef %58, ptr noundef %59, ptr noundef %60)
  br label %62

62:                                               ; preds = %57, %41, %30, %20
  ret void
}