; Function Attrs: nounwind uwtable
define hidden void @zim_DOMProcessingInstruction___construct(ptr nocapture noundef readonly %0, ptr nocapture noundef readnone %1) local_unnamed_addr #0 {
  %3 = alloca ptr, align 8
  %4 = alloca ptr, align 8
  %5 = alloca i64, align 8
  %6 = alloca i64, align 8
  store ptr null, ptr %4, align 8
  %7 = getelementptr inbounds i8, ptr %0, i64 32
  %8 = getelementptr inbounds i8, ptr %0, i64 44
  %9 = load i32, ptr %8, align 4
  %10 = call i32 (i32, ptr, ...) @zend_parse_parameters(i32 noundef %9, ptr noundef nonnull @.str, ptr noundef nonnull %3, ptr noundef nonnull %5, ptr noundef nonnull %4, ptr noundef nonnull %6) #6
  %11 = icmp eq i32 %10, -1
  br i1 %11, label %12, label %15

12:                                               ; preds = %2
  %13 = load ptr, ptr getelementptr inbounds (%struct._zend_executor_globals, ptr @executor_globals, i64 0, i32 50), align 8
  %14 = icmp ne ptr %13, null
  call void @llvm.assume(i1 %14)
  br label %35

15:                                               ; preds = %2
  %16 = load ptr, ptr %3, align 8
  %17 = call i32 @xmlValidateName(ptr noundef %16, i32 noundef 0) #6
  %.not = icmp eq i32 %17, 0
  br i1 %.not, label %21, label %18

18:                                               ; preds = %15
  call void @php_dom_throw_error(i32 noundef 5, i32 noundef 1) #6
  %19 = load ptr, ptr getelementptr inbounds (%struct._zend_executor_globals, ptr @executor_globals, i64 0, i32 50), align 8
  %20 = icmp ne ptr %19, null
  call void @llvm.assume(i1 %20)
  br label %35

21:                                               ; preds = %15
  %22 = load ptr, ptr %3, align 8
  %23 = load ptr, ptr %4, align 8
  %24 = call ptr @xmlNewPI(ptr noundef %22, ptr noundef %23) #6
  %.not9 = icmp eq ptr %24, null
  br i1 %.not9, label %25, label %28

25:                                               ; preds = %21
  call void @php_dom_throw_error(i32 noundef 11, i32 noundef 1) #6
  %26 = load ptr, ptr getelementptr inbounds (%struct._zend_executor_globals, ptr @executor_globals, i64 0, i32 50), align 8
  %27 = icmp ne ptr %26, null
  call void @llvm.assume(i1 %27)
  br label %35

28:                                               ; preds = %21
  %29 = load ptr, ptr %7, align 8
  %30 = getelementptr inbounds i8, ptr %29, i64 -24
  %31 = call ptr @dom_object_get_node(ptr noundef nonnull %30) #6
  %.not10 = icmp eq ptr %31, null
  br i1 %.not10, label %33, label %32

32:                                               ; preds = %28
  call void @php_libxml_node_decrement_resource(ptr noundef nonnull %30) #6
  br label %33

33:                                               ; preds = %32, %28
  %34 = call i32 @php_libxml_increment_node_ptr(ptr noundef nonnull %30, ptr noundef nonnull %24, ptr noundef nonnull %30) #6
  br label %35

35:                                               ; preds = %33, %25, %18, %12
  ret void
}